; Function Attrs: mustprogress uwtable
define void @_ZN13duckdb_snappy20RawCompressFromIOVecEPK5iovecmPcPmNS_18CompressionOptionsE(ptr noundef %0, i64 noundef %1, ptr noundef %2, ptr noundef writeonly captures(none) %3, i32 %4) local_unnamed_addr #3 personality ptr @__gxx_personality_v0 {
  %6 = alloca %"class.duckdb_snappy::SnappyIOVecReader", align 8
  %7 = alloca %"class.duckdb_snappy::UncheckedByteArraySink", align 8
  call void @llvm.lifetime.start.p0(i64 40, ptr nonnull %6) #27
  store ptr getelementptr inbounds nuw inrange(-16, 40) (i8, ptr @_ZTVN13duckdb_snappy17SnappyIOVecReaderE, i64 16), ptr %6, align 8, !tbaa !49
  %8 = getelementptr inbounds nuw i8, ptr %6, i64 8
  store ptr %0, ptr %8, align 8, !tbaa !87
  %9 = getelementptr inbounds nuw i8, ptr %6, i64 16
  %.not.i = icmp eq i64 %1, 0
  br i1 %.not.i, label %.critedge.i, label %10

10:                                               ; preds = %5
  %11 = load ptr, ptr %0, align 8, !tbaa !63
  store ptr %11, ptr %9, align 8, !tbaa !89
  %12 = getelementptr inbounds nuw i8, ptr %6, i64 24
  %13 = getelementptr inbounds nuw i8, ptr %0, i64 8
  %14 = load i64, ptr %13, align 8, !tbaa !65
  store i64 %14, ptr %12, align 8, !tbaa !90
  %15 = getelementptr inbounds nuw i8, ptr %6, i64 32
  store i64 %1, ptr %15, align 8, !tbaa !91
  %16 = icmp eq i64 %14, 0
  br i1 %16, label %.preheader.i, label %23

.preheader.i:                                     ; preds = %10, %.preheader.i
  %17 = phi ptr [ %18, %.preheader.i ], [ %0, %10 ]
  %18 = getelementptr inbounds nuw i8, ptr %17, i64 16
  %19 = getelementptr inbounds nuw i8, ptr %17, i64 24
  %20 = load i64, ptr %19, align 8, !tbaa !65
  %21 = icmp eq i64 %20, 0
  br i1 %21, label %.preheader.i, label %.loopexit.i.i, !llvm.loop !92

.loopexit.i.i:                                    ; preds = %.preheader.i
  %22 = load ptr, ptr %18, align 8, !tbaa !63
  store ptr %18, ptr %8, align 8, !tbaa !87
  store ptr %22, ptr %9, align 8, !tbaa !89
  store i64 %20, ptr %12, align 8, !tbaa !90
  br label %23

.critedge.i:                                      ; preds = %5
  call void @llvm.memset.p0.i64(ptr noundef nonnull align 8 dereferenceable(24) %9, i8 0, i64 24, i1 false)
  br label %23

23:                                               ; preds = %.critedge.i, %.loopexit.i.i, %10
  call void @llvm.lifetime.start.p0(i64 16, ptr nonnull %7) #27
  store ptr getelementptr inbounds nuw inrange(-16, 48) (i8, ptr @_ZTVN13duckdb_snappy22UncheckedByteArraySinkE, i64 16), ptr %7, align 8, !tbaa !49
  %24 = getelementptr inbounds nuw i8, ptr %7, i64 8
  store ptr %2, ptr %24, align 8, !tbaa !84
  %25 = invoke noundef i64 @_ZN13duckdb_snappy8CompressEPNS_6SourceEPNS_4SinkENS_18CompressionOptionsE(ptr noundef nonnull %6, ptr noundef nonnull %7, i32 %4)
          to label %26 unwind label %31

26:                                               ; preds = %23
  %27 = load ptr, ptr %24, align 8, !tbaa !84
  %28 = ptrtoint ptr %27 to i64
  %29 = ptrtoint ptr %2 to i64
  %30 = sub i64 %28, %29
  store i64 %30, ptr %3, align 8, !tbaa !6
  call void @_ZN13duckdb_snappy22UncheckedByteArraySinkD1Ev(ptr noundef nonnull align 8 dereferenceable(16) %7) #27
  call void @llvm.lifetime.end.p0(i64 16, ptr nonnull %7) #27
  call void @_ZN13duckdb_snappy6SourceD2Ev(ptr noundef nonnull align 8 dereferenceable(40) %6) #27
  call void @llvm.lifetime.end.p0(i64 40, ptr nonnull %6) #27
  ret void

31:                                               ; preds = %23
  %32 = landingpad { ptr, i32 }
          cleanup
  call void @_ZN13duckdb_snappy22UncheckedByteArraySinkD1Ev(ptr noundef nonnull align 8 dereferenceable(16) %7) #27
  call void @llvm.lifetime.end.p0(i64 16, ptr nonnull %7) #27
  call void @_ZN13duckdb_snappy6SourceD2Ev(ptr noundef nonnull align 8 dereferenceable(40) %6) #27
  call void @llvm.lifetime.end.p0(i64 40, ptr nonnull %6) #27
  resume { ptr, i32 } %32
}